; Function Attrs: noreturn nounwind uwtable
define internal void @error_exit(ptr noundef %0) #2 {
  %2 = load ptr, ptr %0, align 8
  %3 = getelementptr inbounds i8, ptr %2, i64 16
  %4 = load ptr, ptr %3, align 8
  tail call void %4(ptr noundef nonnull %0) #9
  tail call void @jpeg_destroy(ptr noundef nonnull %0) #9
  tail call void @exit(i32 noundef 1) #10
  unreachable
}